cdialogue_engine
scene
p0
((lp1
(lp2
I0
a(idialogue_engine
action
p3
(dp4
S'element'
p5
ccopy_reg
_reconstructor
p6
(cxml.etree.ElementTree
Element
p7
c__builtin__
object
p8
Ntp9
Rp10
(dp11
S'text'
p12
S'This is the first line.'
p13
sS'attrib'
p14
(dp15
S'type'
p16
S'line'
p17
sS'id'
p18
S'0'
p19
sS'actor'
p20
S'0'
p21
ssS'tag'
p22
S'action'
p23
sS'tail'
p24
S'\n\t\t'
p25
sS'_children'
p26
(lp27
sbsS'type'
p28
g17
sS'id'
p29
I0
sS'actor_id'
p30
I0
sbaa(lp31
I1
a(idialogue_engine
action
p32
(dp33
g5
g6
(g7
g8
Ntp34
Rp35
(dp36
g12
S'This is the second line.'
p37
sg14
(dp38
g16
S'line'
p39
sg18
S'1'
p40
sg20
S'1'
p41
ssg22
g23
sg24
S'\n\t\t'
p42
sg26
(lp43
sbsg28
g39
sg29
I1
sg30
I1
sbaa(lp44
I2
a(idialogue_engine
action
p45
(dp46
g5
g6
(g7
g8
Ntp47
Rp48
(dp49
g12
S'\n\t\t\t'
p50
sg14
(dp51
g16
S'choice'
p52
sg18
S'2'
p53
sg20
S'0'
p54
ssg22
g23
sg24
S'\n\t\t'
p55
sg26
(lp56
g6
(g7
g8
Ntp57
Rp58
(dp59
g12
S'This is the third line.'
p60
sg14
(dp61
g23
S'6'
p62
sg16
S'line'
p63
sg18
S'3'
p64
ssg22
g23
sg24
S'\n\t\t\t'
p65
sg26
(lp66
sbag6
(g7
g8
Ntp67
Rp68
(dp69
g12
S'This is the fourth line.'
p70
sg14
(dp71
g23
S'7'
p72
sg16
S'line'
p73
sg18
S'4'
p74
ssg22
g23
sg24
S'\n\t\t\t'
p75
sg26
(lp76
sbag6
(g7
g8
Ntp77
Rp78
(dp79
g12
S'This is the fifth line.'
p80
sg14
(dp81
g16
S'line'
p82
sg18
S'5'
p83
ssg22
g23
sg24
S'\n\t\t'
p84
sg26
(lp85
sbasbsg28
g52
sg29
I2
sg30
I0
sbaa(lp86
I6
a(idialogue_engine
action
p87
(dp88
g5
g6
(g7
g8
Ntp89
Rp90
(dp91
g12
S'This is the sixth line.'
p92
sg14
(dp93
g16
S'line'
p94
sg18
S'6'
p95
sg20
S'1'
p96
ssg22
g23
sg24
S'\n\t\t'
p97
sg26
(lp98
sbsg28
g94
sg29
I6
sg30
I1
sbaa(lp99
I7
a(idialogue_engine
action
p100
(dp101
g5
g6
(g7
g8
Ntp102
Rp103
(dp104
g12
S'This is the seventh line.'
p105
sg14
(dp106
g16
S'line'
p107
sg18
S'7'
p108
sg20
S'1'
p109
ssg22
g23
sg24
S'\n\t'
p110
sg26
(lp111
sbsg28
g107
sg29
I7
sg30
I1
sbaatp112
Rp113
(dp114
S'max_action'
p115
I5
sS'actors'
p116
g6
(cactors
actors
p117
c__builtin__
dict
p118
(dp119
I0
(iactors
actor
p120
(dp121
S'description'
p122
S'Tall, stupid monster.'
p123
sg29
I0
sS'name'
p124
S'Troll'
p125
sbsI1
(iactors
actor
p126
(dp127
g122
S'Short, stupid monster.'
p128
sg29
I1
sg124
S'Goblin'
p129
sbstp130
Rp131
sS'current_action'
p132
I1
sb.